target datalayout = "e-m:e-p270:32:32-p271:32:32-p272:64:64-i64:64-i128:128-f80:128-n8:16:32:64-S128"
target triple = "x86_64-pc-linux-gnu"

%class.Metadata = type { ptr }
%class.AccessFlags = type { i32 }
%class.Method = type { %class.Metadata, ptr, ptr, ptr, ptr, %class.AccessFlags, i32, %class.MethodFlags, i16, %class.JfrTraceFlag, ptr, ptr, ptr, ptr }
%class.MethodFlags = type { i32 }
%class.JfrTraceFlag = type { i16 }
%class.ConstMethod = type <{ i64, ptr, ptr, i32, %class.ConstMethodFlags, i8, i8, i16, i16, i16, i16, i16, i16, i16, i16, i16, [4 x i8] }>
%class.ConstMethodFlags = type { i32 }

; Function Attrs: mustprogress nounwind uwtable
define linkonce_odr hidden noundef zeroext i16 @_ZNK11ConstMethod10max_localsEv(ptr noundef nonnull align 8 dereferenceable(52) %0) #1 comdat align 2 {
  %2 = alloca ptr, align 8
  store ptr %0, ptr %2, align 8
  %3 = load ptr, ptr %2, align 8
  %4 = getelementptr inbounds %class.ConstMethod, ptr %3, i32 0, i32 12
  %5 = load i16, ptr %4, align 4
  ret i16 %5
}

; Function Attrs: mustprogress nounwind uwtable
define linkonce_odr hidden noundef ptr @_ZNK6Method11constMethodEv(ptr noundef nonnull align 8 dereferenceable(88) %0) #1 comdat align 2 {
  %2 = alloca ptr, align 8
  store ptr %0, ptr %2, align 8
  %3 = load ptr, ptr %2, align 8
  %4 = getelementptr inbounds %class.Method, ptr %3, i32 0, i32 1
  %5 = load ptr, ptr %4, align 8
  ret ptr %5
}

; Function Attrs: mustprogress nounwind uwtable
define linkonce_odr hidden noundef zeroext i16 @_ZNK6Method10max_localsEv(ptr noundef nonnull align 8 dereferenceable(88) %0) #1 comdat align 2 {
  %2 = alloca ptr, align 8
  store ptr %0, ptr %2, align 8
  %3 = load ptr, ptr %2, align 8
  %4 = call noundef ptr @_ZNK6Method11constMethodEv(ptr noundef nonnull align 8 dereferenceable(88) %3)
  %5 = call noundef zeroext i16 @_ZNK11ConstMethod10max_localsEv(ptr noundef nonnull align 8 dereferenceable(52) %4)
  ret i16 %5
}

; Function Attrs: mustprogress nounwind uwtable
define hidden noundef i32 @_ZN8JvmtiEnv12GetMaxLocalsEP6MethodPi(ptr noundef nonnull align 8 dereferenceable(460) %0, ptr noundef %1, ptr noundef %2) #1 align 2 {
  %4 = alloca i32, align 4
  %5 = alloca ptr, align 8
  %6 = alloca ptr, align 8
  %7 = alloca ptr, align 8
  store ptr %0, ptr %5, align 8
  store ptr %1, ptr %6, align 8
  store ptr %2, ptr %7, align 8
  %8 = load ptr, ptr %6, align 8
  %9 = icmp eq ptr %8, null
  br i1 %9, label %10, label %11

10:                                               ; preds = %3
  store i32 23, ptr %4, align 4
  br label %16

11:                                               ; preds = %3
  %12 = load ptr, ptr %6, align 8
  %13 = call noundef zeroext i16 @_ZNK6Method10max_localsEv(ptr noundef nonnull align 8 dereferenceable(88) %12)
  %14 = zext i16 %13 to i32
  %15 = load ptr, ptr %7, align 8
  store i32 %14, ptr %15, align 4
  store i32 0, ptr %4, align 4
  br label %16

16:                                               ; preds = %11, %10
  %17 = load i32, ptr %4, align 4
  ret i32 %17
}