; Function Attrs: mustprogress nofree norecurse nosync nounwind willreturn memory(read, argmem: readwrite, inaccessiblemem: none) uwtable
define hidden noundef range(i32 0, 24) i32 @_ZN8JvmtiEnv12GetMaxLocalsEP6MethodPi(ptr nocapture noundef nonnull readnone align 8 dereferenceable(460) %0, ptr noundef readonly %1, ptr nocapture noundef writeonly %2) local_unnamed_addr #8 align 2 {
  %4 = icmp eq ptr %1, null
  br i1 %4, label %11, label %5

5:                                                ; preds = %3
  %6 = getelementptr inbounds i8, ptr %1, i64 8
  %7 = load ptr, ptr %6, align 8
  %8 = getelementptr inbounds i8, ptr %7, i64 44
  %9 = load i16, ptr %8, align 4
  %10 = zext i16 %9 to i32
  store i32 %10, ptr %2, align 4
  br label %11

11:                                               ; preds = %3, %5
  %.0 = phi i32 [ 0, %5 ], [ 23, %3 ]
  ret i32 %.0
}